target datalayout = "e-m:e-p270:32:32-p271:32:32-p272:64:64-i64:64-i128:128-f80:128-n8:16:32:64-S128"
target triple = "x86_64-pc-linux-gnu"

%struct.lua_State = type { i8, i8, i8, i8, i8, i8, i8, ptr, ptr, ptr, ptr, ptr, ptr, ptr, ptr, i32, i32, i16, i16, i32, ptr, ptr, ptr, ptr, ptr }
%struct.global_State = type { %struct.stringtable, ptr, ptr, i8, i8, ptr, ptr, ptr, i64, i64, i32, i32, i32, [40 x ptr], [40 x ptr], ptr, ptr, ptr, [256 x i64], ptr, %struct.UpVal, [11 x ptr], [11 x ptr], [21 x ptr], %struct.lua_TValue, %struct.lua_TValue, i32, ptr, i64, [4 x i64], %struct.lua_Callbacks, %struct.lua_ExecutionCallbacks, [128 x ptr], [128 x ptr], [128 x ptr], %struct.GCStats }
%struct.stringtable = type { ptr, i32, i32 }
%struct.UpVal = type { i8, i8, i8, i8, ptr, %union.anon }
%union.anon = type { %struct.anon }
%struct.anon = type { ptr, ptr, ptr }
%struct.lua_TValue = type { %union.Value, [1 x i32], i32 }
%union.Value = type { ptr }
%struct.lua_Callbacks = type { ptr, ptr, ptr, ptr, ptr, ptr, ptr, ptr, ptr }
%struct.lua_ExecutionCallbacks = type { ptr, ptr, ptr, ptr, ptr, ptr, ptr }
%struct.GCStats = type { [32 x i32], i32, i32, i64, i64, i64, double, double, double }
%struct.GCheader = type { i8, i8, i8 }
%struct.Table = type { i8, i8, i8, i8, i8, i8, i8, i8, i32, %union.anon.4, ptr, ptr, ptr, ptr }
%union.anon.4 = type { i32 }

; Function Attrs: mustprogress uwtable
define internal void @_ZL6markmtP12global_State(ptr noundef %0) #0 {
  %2 = alloca ptr, align 8
  %3 = alloca i32, align 4
  store ptr %0, ptr %2, align 8
  store i32 0, ptr %3, align 4
  br label %4

4:                                                ; preds = %39, %1
  %5 = load i32, ptr %3, align 4
  %6 = icmp slt i32 %5, 11
  br i1 %6, label %7, label %42

7:                                                ; preds = %4
  %8 = load ptr, ptr %2, align 8
  %9 = getelementptr inbounds %struct.global_State, ptr %8, i32 0, i32 21
  %10 = load i32, ptr %3, align 4
  %11 = sext i32 %10 to i64
  %12 = getelementptr inbounds [11 x ptr], ptr %9, i64 0, i64 %11
  %13 = load ptr, ptr %12, align 8
  %14 = icmp ne ptr %13, null
  br i1 %14, label %15, label %38

15:                                               ; preds = %7
  %16 = load ptr, ptr %2, align 8
  %17 = getelementptr inbounds %struct.global_State, ptr %16, i32 0, i32 21
  %18 = load i32, ptr %3, align 4
  %19 = sext i32 %18 to i64
  %20 = getelementptr inbounds [11 x ptr], ptr %17, i64 0, i64 %19
  %21 = load ptr, ptr %20, align 8
  %22 = getelementptr inbounds %struct.Table, ptr %21, i64 0
  %23 = getelementptr inbounds %struct.GCheader, ptr %22, i32 0, i32 1
  %24 = load i8, ptr %23, align 1
  %25 = zext i8 %24 to i32
  %26 = and i32 %25, 3
  %27 = icmp ne i32 %26, 0
  br i1 %27, label %28, label %37

28:                                               ; preds = %15
  %29 = load ptr, ptr %2, align 8
  %30 = load ptr, ptr %2, align 8
  %31 = getelementptr inbounds %struct.global_State, ptr %30, i32 0, i32 21
  %32 = load i32, ptr %3, align 4
  %33 = sext i32 %32 to i64
  %34 = getelementptr inbounds [11 x ptr], ptr %31, i64 0, i64 %33
  %35 = load ptr, ptr %34, align 8
  %36 = getelementptr inbounds %struct.Table, ptr %35, i64 0
  call void @_ZL16reallymarkobjectP12global_StateP8GCObject(ptr noundef %29, ptr noundef %36)
  br label %37

37:                                               ; preds = %28, %15
  br label %38

38:                                               ; preds = %37, %7
  br label %39

39:                                               ; preds = %38
  %40 = load i32, ptr %3, align 4
  %41 = add nsw i32 %40, 1
  store i32 %41, ptr %3, align 4
  br label %4, !llvm.loop !29

42:                                               ; preds = %4
  ret void
}

; Function Attrs: mustprogress uwtable
define internal void @_ZL8markrootP9lua_State(ptr noundef %0) #0 {
  %2 = alloca ptr, align 8
  %3 = alloca ptr, align 8
  store ptr %0, ptr %2, align 8
  %4 = load ptr, ptr %2, align 8
  %5 = getelementptr inbounds %struct.lua_State, ptr %4, i32 0, i32 9
  %6 = load ptr, ptr %5, align 8
  store ptr %6, ptr %3, align 8
  %7 = load ptr, ptr %3, align 8
  %8 = getelementptr inbounds %struct.global_State, ptr %7, i32 0, i32 5
  store ptr null, ptr %8, align 8
  %9 = load ptr, ptr %3, align 8
  %10 = getelementptr inbounds %struct.global_State, ptr %9, i32 0, i32 6
  store ptr null, ptr %10, align 8
  %11 = load ptr, ptr %3, align 8
  %12 = getelementptr inbounds %struct.global_State, ptr %11, i32 0, i32 7
  store ptr null, ptr %12, align 8
  %13 = load ptr, ptr %3, align 8
  %14 = getelementptr inbounds %struct.global_State, ptr %13, i32 0, i32 19
  %15 = load ptr, ptr %14, align 8
  %16 = getelementptr inbounds %struct.lua_State, ptr %15, i64 0
  %17 = getelementptr inbounds %struct.GCheader, ptr %16, i32 0, i32 1
  %18 = load i8, ptr %17, align 1
  %19 = zext i8 %18 to i32
  %20 = and i32 %19, 3
  %21 = icmp ne i32 %20, 0
  br i1 %21, label %22, label %28

22:                                               ; preds = %1
  %23 = load ptr, ptr %3, align 8
  %24 = load ptr, ptr %3, align 8
  %25 = getelementptr inbounds %struct.global_State, ptr %24, i32 0, i32 19
  %26 = load ptr, ptr %25, align 8
  %27 = getelementptr inbounds %struct.lua_State, ptr %26, i64 0
  call void @_ZL16reallymarkobjectP12global_StateP8GCObject(ptr noundef %23, ptr noundef %27)
  br label %28

28:                                               ; preds = %22, %1
  %29 = load ptr, ptr %3, align 8
  %30 = getelementptr inbounds %struct.global_State, ptr %29, i32 0, i32 19
  %31 = load ptr, ptr %30, align 8
  %32 = getelementptr inbounds %struct.lua_State, ptr %31, i32 0, i32 20
  %33 = load ptr, ptr %32, align 8
  %34 = getelementptr inbounds %struct.Table, ptr %33, i64 0
  %35 = getelementptr inbounds %struct.GCheader, ptr %34, i32 0, i32 1
  %36 = load i8, ptr %35, align 1
  %37 = zext i8 %36 to i32
  %38 = and i32 %37, 3
  %39 = icmp ne i32 %38, 0
  br i1 %39, label %40, label %48

40:                                               ; preds = %28
  %41 = load ptr, ptr %3, align 8
  %42 = load ptr, ptr %3, align 8
  %43 = getelementptr inbounds %struct.global_State, ptr %42, i32 0, i32 19
  %44 = load ptr, ptr %43, align 8
  %45 = getelementptr inbounds %struct.lua_State, ptr %44, i32 0, i32 20
  %46 = load ptr, ptr %45, align 8
  %47 = getelementptr inbounds %struct.Table, ptr %46, i64 0
  call void @_ZL16reallymarkobjectP12global_StateP8GCObject(ptr noundef %41, ptr noundef %47)
  br label %48

48:                                               ; preds = %40, %28
  %49 = load ptr, ptr %2, align 8
  %50 = getelementptr inbounds %struct.lua_State, ptr %49, i32 0, i32 9
  %51 = load ptr, ptr %50, align 8
  %52 = getelementptr inbounds %struct.global_State, ptr %51, i32 0, i32 25
  %53 = getelementptr inbounds %struct.lua_TValue, ptr %52, i32 0, i32 2
  %54 = load i32, ptr %53, align 4
  %55 = icmp sge i32 %54, 5
  br i1 %55, label %56, label %76

56:                                               ; preds = %48
  %57 = load ptr, ptr %2, align 8
  %58 = getelementptr inbounds %struct.lua_State, ptr %57, i32 0, i32 9
  %59 = load ptr, ptr %58, align 8
  %60 = getelementptr inbounds %struct.global_State, ptr %59, i32 0, i32 25
  %61 = getelementptr inbounds %struct.lua_TValue, ptr %60, i32 0, i32 0
  %62 = load ptr, ptr %61, align 8
  %63 = getelementptr inbounds %struct.GCheader, ptr %62, i32 0, i32 1
  %64 = load i8, ptr %63, align 1
  %65 = zext i8 %64 to i32
  %66 = and i32 %65, 3
  %67 = icmp ne i32 %66, 0
  br i1 %67, label %68, label %76

68:                                               ; preds = %56
  %69 = load ptr, ptr %3, align 8
  %70 = load ptr, ptr %2, align 8
  %71 = getelementptr inbounds %struct.lua_State, ptr %70, i32 0, i32 9
  %72 = load ptr, ptr %71, align 8
  %73 = getelementptr inbounds %struct.global_State, ptr %72, i32 0, i32 25
  %74 = getelementptr inbounds %struct.lua_TValue, ptr %73, i32 0, i32 0
  %75 = load ptr, ptr %74, align 8
  call void @_ZL16reallymarkobjectP12global_StateP8GCObject(ptr noundef %69, ptr noundef %75)
  br label %76

76:                                               ; preds = %68, %56, %48
  %77 = load ptr, ptr %3, align 8
  call void @_ZL6markmtP12global_State(ptr noundef %77)
  %78 = load ptr, ptr %3, align 8
  %79 = getelementptr inbounds %struct.global_State, ptr %78, i32 0, i32 4
  store i8 1, ptr %79, align 1
  ret void
}