; Function Attrs: mustprogress nofree nosync nounwind memory(readwrite, inaccessiblemem: none) uwtable
define internal fastcc void @_ZL8markrootP9lua_State(ptr nocapture noundef readonly %0) unnamed_addr #2 {
  %2 = getelementptr inbounds i8, ptr %0, i64 24
  %3 = load ptr, ptr %2, align 8
  %4 = getelementptr inbounds i8, ptr %3, i64 40
  %5 = getelementptr inbounds i8, ptr %3, i64 2808
  tail call void @llvm.memset.p0.i64(ptr noundef nonnull align 8 dereferenceable(24) %4, i8 0, i64 24, i1 false)
  %6 = load ptr, ptr %5, align 8
  %7 = getelementptr inbounds i8, ptr %6, i64 1
  %8 = load i8, ptr %7, align 1
  %9 = and i8 %8, 3
  %.not = icmp eq i8 %9, 0
  br i1 %.not, label %11, label %10

10:                                               ; preds = %1
  tail call fastcc void @_ZL16reallymarkobjectP12global_StateP8GCObject(ptr noundef nonnull %3, ptr noundef nonnull %6)
  %.pre = load ptr, ptr %5, align 8
  br label %11

11:                                               ; preds = %10, %1
  %12 = phi ptr [ %.pre, %10 ], [ %6, %1 ]
  %13 = getelementptr inbounds i8, ptr %12, i64 88
  %14 = load ptr, ptr %13, align 8
  %15 = getelementptr inbounds i8, ptr %14, i64 1
  %16 = load i8, ptr %15, align 1
  %17 = and i8 %16, 3
  %.not16 = icmp eq i8 %17, 0
  br i1 %.not16, label %19, label %18

18:                                               ; preds = %11
  tail call fastcc void @_ZL16reallymarkobjectP12global_StateP8GCObject(ptr noundef nonnull %3, ptr noundef nonnull %14)
  br label %19

19:                                               ; preds = %18, %11
  %20 = load ptr, ptr %2, align 8
  %21 = getelementptr inbounds i8, ptr %20, i64 3228
  %22 = load i32, ptr %21, align 4
  %23 = icmp sgt i32 %22, 4
  br i1 %23, label %24, label %31

24:                                               ; preds = %19
  %25 = getelementptr inbounds i8, ptr %20, i64 3216
  %26 = load ptr, ptr %25, align 8
  %27 = getelementptr inbounds i8, ptr %26, i64 1
  %28 = load i8, ptr %27, align 1
  %29 = and i8 %28, 3
  %.not17 = icmp eq i8 %29, 0
  br i1 %.not17, label %31, label %30

30:                                               ; preds = %24
  tail call fastcc void @_ZL16reallymarkobjectP12global_StateP8GCObject(ptr noundef nonnull %3, ptr noundef nonnull %26)
  br label %31

31:                                               ; preds = %30, %24, %19
  %32 = getelementptr inbounds i8, ptr %3, i64 2856
  br label %33

33:                                               ; preds = %41, %31
  %indvars.iv.i = phi i64 [ 0, %31 ], [ %indvars.iv.next.i, %41 ]
  %34 = getelementptr inbounds [11 x ptr], ptr %32, i64 0, i64 %indvars.iv.i
  %35 = load ptr, ptr %34, align 8
  %.not.i = icmp eq ptr %35, null
  br i1 %.not.i, label %41, label %36

36:                                               ; preds = %33
  %37 = getelementptr inbounds i8, ptr %35, i64 1
  %38 = load i8, ptr %37, align 1
  %39 = and i8 %38, 3
  %.not9.i = icmp eq i8 %39, 0
  br i1 %.not9.i, label %41, label %40

40:                                               ; preds = %36
  tail call fastcc void @_ZL16reallymarkobjectP12global_StateP8GCObject(ptr noundef nonnull %3, ptr noundef nonnull %35)
  br label %41

41:                                               ; preds = %40, %36, %33
  %indvars.iv.next.i = add nuw nsw i64 %indvars.iv.i, 1
  %exitcond.not.i = icmp eq i64 %indvars.iv.next.i, 11
  br i1 %exitcond.not.i, label %_ZL6markmtP12global_State.exit, label %33, !llvm.loop !10

_ZL6markmtP12global_State.exit:                   ; preds = %41
  %42 = getelementptr inbounds i8, ptr %3, i64 33
  store i8 1, ptr %42, align 1
  ret void
}